target datalayout = "e-m:e-p270:32:32-p271:32:32-p272:64:64-i64:64-i128:128-f80:128-n8:16:32:64-S128"
target triple = "x86_64-pc-linux-gnu"

%struct.OptionDef = type { ptr, i32, i32, %union.anon, ptr, ptr, %union.anon.0 }
%union.anon = type { ptr }
%union.anon.0 = type { ptr }

@parse_option.opt_avoptions = internal constant %struct.OptionDef { ptr @.str.10, i32 0, i32 1, %union.anon { ptr @opt_default }, ptr null, ptr null, %union.anon.0 zeroinitializer }, align 8
@.str.11 = private unnamed_addr constant [2 x i8] c"0\00", align 1
@.str.12 = private unnamed_addr constant [2 x i8] c"1\00", align 1
@.str.13 = private unnamed_addr constant [26 x i8] c"Unrecognized option '%s'\0A\00", align 1
@.str.14 = private unnamed_addr constant [34 x i8] c"Missing argument for option '%s'\0A\00", align 1

; Function Attrs: nounwind uwtable
define internal i32 @opt_has_arg(ptr noundef %0) #0 {
  %2 = alloca i32, align 4
  %3 = alloca ptr, align 8
  store ptr %0, ptr %3, align 8, !tbaa !21
  %4 = load ptr, ptr %3, align 8, !tbaa !21
  %5 = getelementptr inbounds nuw %struct.OptionDef, ptr %4, i32 0, i32 1
  %6 = load i32, ptr %5, align 8, !tbaa !36
  %7 = icmp eq i32 %6, 1
  br i1 %7, label %8, label %9

8:                                                ; preds = %1
  store i32 0, ptr %2, align 4
  br label %24

9:                                                ; preds = %1
  %10 = load ptr, ptr %3, align 8, !tbaa !21
  %11 = getelementptr inbounds nuw %struct.OptionDef, ptr %10, i32 0, i32 1
  %12 = load i32, ptr %11, align 8, !tbaa !36
  %13 = icmp eq i32 %12, 0
  br i1 %13, label %14, label %23

14:                                               ; preds = %9
  %15 = load ptr, ptr %3, align 8, !tbaa !21
  %16 = getelementptr inbounds nuw %struct.OptionDef, ptr %15, i32 0, i32 2
  %17 = load i32, ptr %16, align 4, !tbaa !25
  %18 = and i32 %17, 1
  %19 = icmp ne i32 %18, 0
  %20 = xor i1 %19, true
  %21 = xor i1 %20, true
  %22 = zext i1 %21 to i32
  store i32 %22, ptr %2, align 4
  br label %24

23:                                               ; preds = %9
  store i32 1, ptr %2, align 4
  br label %24

24:                                               ; preds = %23, %14, %8
  %25 = load i32, ptr %2, align 4
  ret i32 %25
}

; Function Attrs: nounwind uwtable
define internal ptr @find_option(ptr noundef %0, ptr noundef %1) #0 {
  %3 = alloca ptr, align 8
  %4 = alloca ptr, align 8
  %5 = alloca ptr, align 8
  %6 = alloca i32, align 4
  store ptr %0, ptr %3, align 8, !tbaa !21
  store ptr %1, ptr %4, align 8, !tbaa !10
  %7 = load ptr, ptr %4, align 8, !tbaa !10
  %8 = load i8, ptr %7, align 1, !tbaa !20
  %9 = sext i8 %8 to i32
  %10 = icmp eq i32 %9, 47
  br i1 %10, label %11, label %14

11:                                               ; preds = %2
  %12 = load ptr, ptr %4, align 8, !tbaa !10
  %13 = getelementptr inbounds nuw i8, ptr %12, i32 1
  store ptr %13, ptr %4, align 8, !tbaa !10
  br label %14

14:                                               ; preds = %11, %2
  br label %15

15:                                               ; preds = %42, %14
  %16 = load ptr, ptr %3, align 8, !tbaa !21
  %17 = getelementptr inbounds nuw %struct.OptionDef, ptr %16, i32 0, i32 0
  %18 = load ptr, ptr %17, align 8, !tbaa !23
  %19 = icmp ne ptr %18, null
  br i1 %19, label %20, label %43

20:                                               ; preds = %15
  call void @llvm.lifetime.start.p0(i64 8, ptr %5) #11
  %21 = load ptr, ptr %4, align 8, !tbaa !10
  %22 = load ptr, ptr %3, align 8, !tbaa !21
  %23 = getelementptr inbounds nuw %struct.OptionDef, ptr %22, i32 0, i32 0
  %24 = load ptr, ptr %23, align 8, !tbaa !23
  %25 = call i32 @av_strstart(ptr noundef %21, ptr noundef %24, ptr noundef %5)
  %26 = icmp ne i32 %25, 0
  br i1 %26, label %27, label %37

27:                                               ; preds = %20
  %28 = load ptr, ptr %5, align 8, !tbaa !10
  %29 = load i8, ptr %28, align 1, !tbaa !20
  %30 = icmp ne i8 %29, 0
  br i1 %30, label %31, label %36

31:                                               ; preds = %27
  %32 = load ptr, ptr %5, align 8, !tbaa !10
  %33 = load i8, ptr %32, align 1, !tbaa !20
  %34 = sext i8 %33 to i32
  %35 = icmp eq i32 %34, 58
  br i1 %35, label %36, label %37

36:                                               ; preds = %31, %27
  store i32 3, ptr %6, align 4
  br label %40

37:                                               ; preds = %31, %20
  %38 = load ptr, ptr %3, align 8, !tbaa !21
  %39 = getelementptr inbounds nuw %struct.OptionDef, ptr %38, i32 1
  store ptr %39, ptr %3, align 8, !tbaa !21
  store i32 0, ptr %6, align 4
  br label %40

40:                                               ; preds = %37, %36
  call void @llvm.lifetime.end.p0(i64 8, ptr %5) #11
  %41 = load i32, ptr %6, align 4
  switch i32 %41, label %45 [
    i32 0, label %42
    i32 3, label %43
  ]

42:                                               ; preds = %40
  br label %15, !llvm.loop !40

43:                                               ; preds = %40, %15
  %44 = load ptr, ptr %3, align 8, !tbaa !21
  ret ptr %44

45:                                               ; preds = %40
  unreachable
}

; Function Attrs: nounwind uwtable
define i32 @parse_option(ptr noundef %0, ptr noundef %1, ptr noundef %2, ptr noundef %3) #0 {
  %5 = alloca i32, align 4
  %6 = alloca ptr, align 8
  %7 = alloca ptr, align 8
  %8 = alloca ptr, align 8
  %9 = alloca ptr, align 8
  %10 = alloca ptr, align 8
  %11 = alloca i32, align 4
  %12 = alloca i32, align 4
  store ptr %0, ptr %6, align 8, !tbaa !4
  store ptr %1, ptr %7, align 8, !tbaa !10
  store ptr %2, ptr %8, align 8, !tbaa !10
  store ptr %3, ptr %9, align 8, !tbaa !21
  call void @llvm.lifetime.start.p0(i64 8, ptr %10) #11
  call void @llvm.lifetime.start.p0(i64 4, ptr %11) #11
  %13 = load ptr, ptr %9, align 8, !tbaa !21
  %14 = load ptr, ptr %7, align 8, !tbaa !10
  %15 = call ptr @find_option(ptr noundef %13, ptr noundef %14)
  store ptr %15, ptr %10, align 8, !tbaa !21
  %16 = load ptr, ptr %10, align 8, !tbaa !21
  %17 = getelementptr inbounds nuw %struct.OptionDef, ptr %16, i32 0, i32 0
  %18 = load ptr, ptr %17, align 8, !tbaa !23
  %19 = icmp ne ptr %18, null
  br i1 %19, label %48, label %20

20:                                               ; preds = %4
  %21 = load ptr, ptr %7, align 8, !tbaa !10
  %22 = getelementptr inbounds i8, ptr %21, i64 0
  %23 = load i8, ptr %22, align 1, !tbaa !20
  %24 = sext i8 %23 to i32
  %25 = icmp eq i32 %24, 110
  br i1 %25, label %26, label %48

26:                                               ; preds = %20
  %27 = load ptr, ptr %7, align 8, !tbaa !10
  %28 = getelementptr inbounds i8, ptr %27, i64 1
  %29 = load i8, ptr %28, align 1, !tbaa !20
  %30 = sext i8 %29 to i32
  %31 = icmp eq i32 %30, 111
  br i1 %31, label %32, label %48

32:                                               ; preds = %26
  %33 = load ptr, ptr %9, align 8, !tbaa !21
  %34 = load ptr, ptr %7, align 8, !tbaa !10
  %35 = getelementptr inbounds i8, ptr %34, i64 2
  %36 = call ptr @find_option(ptr noundef %33, ptr noundef %35)
  store ptr %36, ptr %10, align 8, !tbaa !21
  %37 = load ptr, ptr %10, align 8, !tbaa !21
  %38 = getelementptr inbounds nuw %struct.OptionDef, ptr %37, i32 0, i32 0
  %39 = load ptr, ptr %38, align 8, !tbaa !23
  %40 = icmp ne ptr %39, null
  br i1 %40, label %41, label %47

41:                                               ; preds = %32
  %42 = load ptr, ptr %10, align 8, !tbaa !21
  %43 = getelementptr inbounds nuw %struct.OptionDef, ptr %42, i32 0, i32 1
  %44 = load i32, ptr %43, align 8, !tbaa !36
  %45 = icmp eq i32 %44, 1
  br i1 %45, label %46, label %47

46:                                               ; preds = %41
  store ptr @.str.11, ptr %8, align 8, !tbaa !10
  br label %47

47:                                               ; preds = %46, %41, %32
  br label %55

48:                                               ; preds = %26, %20, %4
  %49 = load ptr, ptr %10, align 8, !tbaa !21
  %50 = getelementptr inbounds nuw %struct.OptionDef, ptr %49, i32 0, i32 1
  %51 = load i32, ptr %50, align 8, !tbaa !36
  %52 = icmp eq i32 %51, 1
  br i1 %52, label %53, label %54

53:                                               ; preds = %48
  store ptr @.str.12, ptr %8, align 8, !tbaa !10
  br label %54

54:                                               ; preds = %53, %48
  br label %55

55:                                               ; preds = %54, %47
  %56 = load ptr, ptr %10, align 8, !tbaa !21
  %57 = getelementptr inbounds nuw %struct.OptionDef, ptr %56, i32 0, i32 0
  %58 = load ptr, ptr %57, align 8, !tbaa !23
  %59 = icmp ne ptr %58, null
  br i1 %59, label %61, label %60

60:                                               ; preds = %55
  store ptr @parse_option.opt_avoptions, ptr %10, align 8, !tbaa !21
  br label %61

61:                                               ; preds = %60, %55
  %62 = load ptr, ptr %10, align 8, !tbaa !21
  %63 = getelementptr inbounds nuw %struct.OptionDef, ptr %62, i32 0, i32 0
  %64 = load ptr, ptr %63, align 8, !tbaa !23
  %65 = icmp ne ptr %64, null
  br i1 %65, label %68, label %66

66:                                               ; preds = %61
  %67 = load ptr, ptr %7, align 8, !tbaa !10
  call void (ptr, i32, ptr, ...) @av_log(ptr noundef null, i32 noundef 16, ptr noundef @.str.13, ptr noundef %67)
  store i32 -22, ptr %5, align 4
  store i32 1, ptr %12, align 4
  br label %91

68:                                               ; preds = %61
  %69 = load ptr, ptr %10, align 8, !tbaa !21
  %70 = call i32 @opt_has_arg(ptr noundef %69)
  %71 = icmp ne i32 %70, 0
  br i1 %71, label %72, label %77

72:                                               ; preds = %68
  %73 = load ptr, ptr %8, align 8, !tbaa !10
  %74 = icmp ne ptr %73, null
  br i1 %74, label %77, label %75

75:                                               ; preds = %72
  %76 = load ptr, ptr %7, align 8, !tbaa !10
  call void (ptr, i32, ptr, ...) @av_log(ptr noundef null, i32 noundef 16, ptr noundef @.str.14, ptr noundef %76)
  store i32 -22, ptr %5, align 4
  store i32 1, ptr %12, align 4
  br label %91

77:                                               ; preds = %72, %68
  %78 = load ptr, ptr %6, align 8, !tbaa !4
  %79 = load ptr, ptr %10, align 8, !tbaa !21
  %80 = load ptr, ptr %7, align 8, !tbaa !10
  %81 = load ptr, ptr %8, align 8, !tbaa !10
  %82 = load ptr, ptr %9, align 8, !tbaa !21
  %83 = call i32 @write_option(ptr noundef %78, ptr noundef %79, ptr noundef %80, ptr noundef %81, ptr noundef %82)
  store i32 %83, ptr %11, align 4, !tbaa !8
  %84 = load i32, ptr %11, align 4, !tbaa !8
  %85 = icmp slt i32 %84, 0
  br i1 %85, label %86, label %88

86:                                               ; preds = %77
  %87 = load i32, ptr %11, align 4, !tbaa !8
  store i32 %87, ptr %5, align 4
  store i32 1, ptr %12, align 4
  br label %91

88:                                               ; preds = %77
  %89 = load ptr, ptr %10, align 8, !tbaa !21
  %90 = call i32 @opt_has_arg(ptr noundef %89)
  store i32 %90, ptr %5, align 4
  store i32 1, ptr %12, align 4
  br label %91

91:                                               ; preds = %88, %86, %75, %66
  call void @llvm.lifetime.end.p0(i64 4, ptr %11) #11
  call void @llvm.lifetime.end.p0(i64 8, ptr %10) #11
  %92 = load i32, ptr %5, align 4
  ret i32 %92
}