; Function Attrs: nounwind uwtable
define range(i32 -2147483648, 2) i32 @parse_option(ptr noundef %0, ptr noundef %1, ptr noundef %2, ptr noundef %3) local_unnamed_addr #0 {
  %5 = alloca ptr, align 8
  %6 = alloca ptr, align 8
  %7 = load i8, ptr %1, align 1, !tbaa !11
  %8 = icmp eq i8 %7, 47
  %spec.select.idx.i = zext i1 %8 to i64
  %spec.select.i = getelementptr inbounds nuw i8, ptr %1, i64 %spec.select.idx.i
  %9 = load ptr, ptr %3, align 8, !tbaa !14
  %.not17.i = icmp eq ptr %9, null
  br i1 %.not17.i, label %find_option.exit.thread, label %.lr.ph.i

.lr.ph.i:                                         ; preds = %4, %15
  %10 = phi ptr [ %17, %15 ], [ %9, %4 ]
  %.0818.i = phi ptr [ %16, %15 ], [ %3, %4 ]
  call void @llvm.lifetime.start.p0(i64 8, ptr nonnull %6) #15
  %11 = call i32 @av_strstart(ptr noundef nonnull %spec.select.i, ptr noundef nonnull %10, ptr noundef nonnull %6) #15
  %.not10.i = icmp eq i32 %11, 0
  br i1 %.not10.i, label %15, label %12

12:                                               ; preds = %.lr.ph.i
  %13 = load ptr, ptr %6, align 8, !tbaa !9
  %14 = load i8, ptr %13, align 1, !tbaa !11
  switch i8 %14, label %15 [
    i8 0, label %find_option.exit
    i8 58, label %find_option.exit
  ]

15:                                               ; preds = %12, %.lr.ph.i
  %16 = getelementptr inbounds nuw i8, ptr %.0818.i, i64 48
  call void @llvm.lifetime.end.p0(i64 8, ptr nonnull %6) #15
  %17 = load ptr, ptr %16, align 8, !tbaa !14
  %.not.i = icmp eq ptr %17, null
  br i1 %.not.i, label %find_option.exit.thread, label %.lr.ph.i

find_option.exit:                                 ; preds = %12, %12
  call void @llvm.lifetime.end.p0(i64 8, ptr nonnull %6) #15
  %.pr = load ptr, ptr %.0818.i, align 8, !tbaa !14
  %.not = icmp eq ptr %.pr, null
  br i1 %.not, label %find_option.exit.thread, label %find_option.exit41.thread.sink.split

find_option.exit.thread:                          ; preds = %15, %4, %find_option.exit
  %.0816.i47 = phi ptr [ %.0818.i, %find_option.exit ], [ %3, %4 ], [ %16, %15 ]
  %18 = load i8, ptr %1, align 1, !tbaa !11
  %19 = icmp eq i8 %18, 110
  br i1 %19, label %20, label %find_option.exit41.thread.sink.split

20:                                               ; preds = %find_option.exit.thread
  %21 = getelementptr inbounds nuw i8, ptr %1, i64 1
  %22 = load i8, ptr %21, align 1, !tbaa !11
  %23 = icmp eq i8 %22, 111
  br i1 %23, label %24, label %find_option.exit41.thread.sink.split

24:                                               ; preds = %20
  %25 = getelementptr inbounds nuw i8, ptr %1, i64 2
  %26 = load i8, ptr %25, align 1, !tbaa !11
  %27 = icmp eq i8 %26, 47
  %spec.select.idx.i32 = zext i1 %27 to i64
  %spec.select.i33 = getelementptr inbounds nuw i8, ptr %25, i64 %spec.select.idx.i32
  %28 = load ptr, ptr %3, align 8, !tbaa !14
  %.not17.i34 = icmp eq ptr %28, null
  br i1 %.not17.i34, label %find_option.exit41.thread, label %.lr.ph.i35

.lr.ph.i35:                                       ; preds = %24, %34
  %29 = phi ptr [ %36, %34 ], [ %28, %24 ]
  %.0818.i36 = phi ptr [ %35, %34 ], [ %3, %24 ]
  call void @llvm.lifetime.start.p0(i64 8, ptr nonnull %5) #15
  %30 = call i32 @av_strstart(ptr noundef nonnull %spec.select.i33, ptr noundef nonnull %29, ptr noundef nonnull %5) #15
  %.not10.i37 = icmp eq i32 %30, 0
  br i1 %.not10.i37, label %34, label %31

31:                                               ; preds = %.lr.ph.i35
  %32 = load ptr, ptr %5, align 8, !tbaa !9
  %33 = load i8, ptr %32, align 1, !tbaa !11
  switch i8 %33, label %34 [
    i8 0, label %find_option.exit41
    i8 58, label %find_option.exit41
  ]

34:                                               ; preds = %31, %.lr.ph.i35
  %35 = getelementptr inbounds nuw i8, ptr %.0818.i36, i64 48
  call void @llvm.lifetime.end.p0(i64 8, ptr nonnull %5) #15
  %36 = load ptr, ptr %35, align 8, !tbaa !14
  %.not.i40 = icmp eq ptr %36, null
  br i1 %.not.i40, label %find_option.exit41.thread, label %.lr.ph.i35

find_option.exit41:                               ; preds = %31, %31
  call void @llvm.lifetime.end.p0(i64 8, ptr nonnull %5) #15
  %.pr48 = load ptr, ptr %.0818.i36, align 8, !tbaa !14
  %.not28 = icmp eq ptr %.pr48, null
  br i1 %.not28, label %find_option.exit41.thread, label %find_option.exit41.thread.sink.split

find_option.exit41.thread.sink.split:             ; preds = %find_option.exit, %find_option.exit.thread, %20, %find_option.exit41
  %.0816.i46.sink = phi ptr [ %.0818.i36, %find_option.exit41 ], [ %.0816.i47, %20 ], [ %.0816.i47, %find_option.exit.thread ], [ %.0818.i, %find_option.exit ]
  %.str.12.sink = phi ptr [ @.str.11, %find_option.exit41 ], [ @.str.12, %20 ], [ @.str.12, %find_option.exit.thread ], [ @.str.12, %find_option.exit ]
  %.not29.ph = phi ptr [ %.0818.i36, %find_option.exit41 ], [ @parse_option.opt_avoptions, %20 ], [ @parse_option.opt_avoptions, %find_option.exit.thread ], [ %.0818.i, %find_option.exit ]
  %37 = getelementptr inbounds nuw i8, ptr %.0816.i46.sink, i64 8
  %38 = load i32, ptr %37, align 8, !tbaa !29
  %39 = icmp eq i32 %38, 1
  %spec.select31 = select i1 %39, ptr %.str.12.sink, ptr %2
  br label %find_option.exit41.thread

find_option.exit41.thread:                        ; preds = %34, %find_option.exit41.thread.sink.split, %24, %find_option.exit41
  %.not29 = phi ptr [ @parse_option.opt_avoptions, %find_option.exit41 ], [ @parse_option.opt_avoptions, %24 ], [ %.not29.ph, %find_option.exit41.thread.sink.split ], [ @parse_option.opt_avoptions, %34 ]
  %.026 = phi ptr [ %2, %find_option.exit41 ], [ %2, %24 ], [ %spec.select31, %find_option.exit41.thread.sink.split ], [ %2, %34 ]
  %40 = load ptr, ptr %.not29, align 8, !tbaa !14
  %.not30 = icmp eq ptr %40, null
  br i1 %.not30, label %41, label %42

41:                                               ; preds = %find_option.exit41.thread
  call void (ptr, i32, ptr, ...) @av_log(ptr noundef null, i32 noundef 16, ptr noundef nonnull @.str.13, ptr noundef nonnull %1) #15
  br label %opt_has_arg.exit43

42:                                               ; preds = %find_option.exit41.thread
  %43 = getelementptr inbounds nuw i8, ptr %.not29, i64 8
  %44 = load i32, ptr %43, align 8, !tbaa !29
  switch i32 %44, label %opt_has_arg.exit [
    i32 1, label %opt_has_arg.exit.thread
    i32 0, label %45
  ]

45:                                               ; preds = %42
  %46 = getelementptr inbounds nuw i8, ptr %.not29, i64 12
  %47 = load i32, ptr %46, align 4, !tbaa !17
  %48 = and i32 %47, 1
  %49 = icmp eq i32 %48, 0
  br label %opt_has_arg.exit

opt_has_arg.exit:                                 ; preds = %42, %45
  %.0.i = phi i1 [ %49, %45 ], [ false, %42 ]
  %50 = icmp ne ptr %.026, null
  %or.cond = or i1 %50, %.0.i
  br i1 %or.cond, label %opt_has_arg.exit.thread, label %51

51:                                               ; preds = %opt_has_arg.exit
  call void (ptr, i32, ptr, ...) @av_log(ptr noundef null, i32 noundef 16, ptr noundef nonnull @.str.14, ptr noundef nonnull %1) #15
  br label %opt_has_arg.exit43

opt_has_arg.exit.thread:                          ; preds = %42, %opt_has_arg.exit
  %52 = call fastcc i32 @write_option(ptr noundef %0, ptr noundef nonnull %.not29, ptr noundef nonnull %1, ptr noundef %.026, ptr noundef nonnull %3)
  %53 = icmp slt i32 %52, 0
  br i1 %53, label %opt_has_arg.exit43, label %54

54:                                               ; preds = %opt_has_arg.exit.thread
  %55 = load i32, ptr %43, align 8, !tbaa !29
  switch i32 %55, label %60 [
    i32 1, label %opt_has_arg.exit43
    i32 0, label %56
  ]

56:                                               ; preds = %54
  %57 = getelementptr inbounds nuw i8, ptr %.not29, i64 12
  %58 = load i32, ptr %57, align 4, !tbaa !17
  %59 = and i32 %58, 1
  br label %opt_has_arg.exit43

60:                                               ; preds = %54
  br label %opt_has_arg.exit43

opt_has_arg.exit43:                               ; preds = %60, %56, %54, %opt_has_arg.exit.thread, %51, %41
  %.0 = phi i32 [ -22, %51 ], [ -22, %41 ], [ %52, %opt_has_arg.exit.thread ], [ %59, %56 ], [ 1, %60 ], [ 0, %54 ]
  ret i32 %.0
}